target datalayout = "e-m:e-p270:32:32-p271:32:32-p272:64:64-i64:64-i128:128-f80:128-n8:16:32:64-S128"
target triple = "x86_64-pc-linux-gnu"

%struct.AVCodecContext = type { ptr, i32, i32, ptr, i32, i32, ptr, ptr, ptr, i64, i32, i32, ptr, i32, %struct.AVRational, %struct.AVRational, %struct.AVRational, i32, i32, i32, i32, i32, %struct.AVRational, i32, i32, i32, i32, i32, i32, i32, i32, i32, i32, i32, ptr, ptr, i32, float, float, float, float, float, float, float, float, float, i32, i32, i32, i32, i32, i32, i32, i32, i32, i32, i32, i32, ptr, ptr, ptr, i32, i32, i32, i32, i32, i32, i32, i32, i32, i32, %struct.AVChannelLayout, i32, i32, i32, i32, i32, i32, i32, i32, ptr, i32, i32, i32, float, float, i32, i32, i32, i32, i32, ptr, i64, i64, float, float, i32, i32, ptr, ptr, i32, i32, i32, i32, i32, ptr, ptr, ptr, ptr, i32, i32, [8 x i64], i32, i32, i32, i32, i32, i32, i32, ptr, ptr, i32, i32, i32, i32, i32, i32, i32, i32, i32, i32, ptr, ptr, i32, i32, ptr, ptr, ptr, ptr, i32, i32, i64, i32, i32, i64, ptr, i64, ptr, i32, ptr, i32 }
%struct.AVRational = type { i32, i32 }
%struct.AVChannelLayout = type { i32, i32, %union.anon.0, ptr }
%union.anon.0 = type { i64 }
%struct.XanContext = type { ptr, ptr, ptr, ptr, i32, %struct.GetByteContext }
%struct.GetByteContext = type { ptr, ptr, ptr }

@.str.2 = private unnamed_addr constant [27 x i8] c"Invalid frame height: %d.\0A\00", align 1
@.str.3 = private unnamed_addr constant [26 x i8] c"Invalid frame width: %d.\0A\00", align 1

; Function Attrs: cold nounwind optsize uwtable
define internal i32 @xan_decode_init(ptr noundef %0) #0 {
  %2 = alloca i32, align 4
  %3 = alloca ptr, align 8
  %4 = alloca ptr, align 8
  %5 = alloca i32, align 4
  store ptr %0, ptr %3, align 8, !tbaa !4
  call void @llvm.lifetime.start.p0(i64 8, ptr %4) #9
  %6 = load ptr, ptr %3, align 8, !tbaa !4
  %7 = getelementptr inbounds nuw %struct.AVCodecContext, ptr %6, i32 0, i32 6
  %8 = load ptr, ptr %7, align 8, !tbaa !9
  store ptr %8, ptr %4, align 8, !tbaa !29
  %9 = load ptr, ptr %3, align 8, !tbaa !4
  %10 = load ptr, ptr %4, align 8, !tbaa !29
  %11 = getelementptr inbounds nuw %struct.XanContext, ptr %10, i32 0, i32 0
  store ptr %9, ptr %11, align 8, !tbaa !31
  %12 = load ptr, ptr %3, align 8, !tbaa !4
  %13 = getelementptr inbounds nuw %struct.AVCodecContext, ptr %12, i32 0, i32 23
  store i32 0, ptr %13, align 8, !tbaa !35
  %14 = load ptr, ptr %3, align 8, !tbaa !4
  %15 = getelementptr inbounds nuw %struct.AVCodecContext, ptr %14, i32 0, i32 19
  %16 = load i32, ptr %15, align 4, !tbaa !36
  %17 = icmp slt i32 %16, 8
  br i1 %17, label %18, label %23

18:                                               ; preds = %1
  %19 = load ptr, ptr %3, align 8, !tbaa !4
  %20 = load ptr, ptr %3, align 8, !tbaa !4
  %21 = getelementptr inbounds nuw %struct.AVCodecContext, ptr %20, i32 0, i32 19
  %22 = load i32, ptr %21, align 4, !tbaa !36
  call void (ptr, i32, ptr, ...) @av_log(ptr noundef %19, i32 noundef 16, ptr noundef @.str.2, i32 noundef %22)
  store i32 -22, ptr %2, align 4
  store i32 1, ptr %5, align 4
  br label %80

23:                                               ; preds = %1
  %24 = load ptr, ptr %3, align 8, !tbaa !4
  %25 = getelementptr inbounds nuw %struct.AVCodecContext, ptr %24, i32 0, i32 18
  %26 = load i32, ptr %25, align 8, !tbaa !37
  %27 = and i32 %26, 1
  %28 = icmp ne i32 %27, 0
  br i1 %28, label %29, label %34

29:                                               ; preds = %23
  %30 = load ptr, ptr %3, align 8, !tbaa !4
  %31 = load ptr, ptr %3, align 8, !tbaa !4
  %32 = getelementptr inbounds nuw %struct.AVCodecContext, ptr %31, i32 0, i32 18
  %33 = load i32, ptr %32, align 8, !tbaa !37
  call void (ptr, i32, ptr, ...) @av_log(ptr noundef %30, i32 noundef 16, ptr noundef @.str.3, i32 noundef %33)
  store i32 -22, ptr %2, align 4
  store i32 1, ptr %5, align 4
  br label %80

34:                                               ; preds = %23
  %35 = load ptr, ptr %3, align 8, !tbaa !4
  %36 = getelementptr inbounds nuw %struct.AVCodecContext, ptr %35, i32 0, i32 18
  %37 = load i32, ptr %36, align 8, !tbaa !37
  %38 = load ptr, ptr %3, align 8, !tbaa !4
  %39 = getelementptr inbounds nuw %struct.AVCodecContext, ptr %38, i32 0, i32 19
  %40 = load i32, ptr %39, align 4, !tbaa !36
  %41 = mul nsw i32 %37, %40
  %42 = load ptr, ptr %4, align 8, !tbaa !29
  %43 = getelementptr inbounds nuw %struct.XanContext, ptr %42, i32 0, i32 4
  store i32 %41, ptr %43, align 8, !tbaa !38
  %44 = load ptr, ptr %4, align 8, !tbaa !29
  %45 = getelementptr inbounds nuw %struct.XanContext, ptr %44, i32 0, i32 4
  %46 = load i32, ptr %45, align 8, !tbaa !38
  %47 = sext i32 %46 to i64
  %48 = call noalias ptr @av_malloc(i64 noundef %47)
  %49 = load ptr, ptr %4, align 8, !tbaa !29
  %50 = getelementptr inbounds nuw %struct.XanContext, ptr %49, i32 0, i32 2
  store ptr %48, ptr %50, align 8, !tbaa !39
  %51 = load ptr, ptr %4, align 8, !tbaa !29
  %52 = getelementptr inbounds nuw %struct.XanContext, ptr %51, i32 0, i32 2
  %53 = load ptr, ptr %52, align 8, !tbaa !39
  %54 = icmp ne ptr %53, null
  br i1 %54, label %56, label %55

55:                                               ; preds = %34
  store i32 -12, ptr %2, align 4
  store i32 1, ptr %5, align 4
  br label %80

56:                                               ; preds = %34
  %57 = load ptr, ptr %4, align 8, !tbaa !29
  %58 = getelementptr inbounds nuw %struct.XanContext, ptr %57, i32 0, i32 4
  %59 = load i32, ptr %58, align 8, !tbaa !38
  %60 = add nsw i32 %59, 130
  %61 = sext i32 %60 to i64
  %62 = call noalias ptr @av_malloc(i64 noundef %61)
  %63 = load ptr, ptr %4, align 8, !tbaa !29
  %64 = getelementptr inbounds nuw %struct.XanContext, ptr %63, i32 0, i32 3
  store ptr %62, ptr %64, align 8, !tbaa !40
  %65 = load ptr, ptr %4, align 8, !tbaa !29
  %66 = getelementptr inbounds nuw %struct.XanContext, ptr %65, i32 0, i32 3
  %67 = load ptr, ptr %66, align 8, !tbaa !40
  %68 = icmp ne ptr %67, null
  br i1 %68, label %70, label %69

69:                                               ; preds = %56
  store i32 -12, ptr %2, align 4
  store i32 1, ptr %5, align 4
  br label %80

70:                                               ; preds = %56
  %71 = call ptr @av_frame_alloc()
  %72 = load ptr, ptr %4, align 8, !tbaa !29
  %73 = getelementptr inbounds nuw %struct.XanContext, ptr %72, i32 0, i32 1
  store ptr %71, ptr %73, align 8, !tbaa !41
  %74 = load ptr, ptr %4, align 8, !tbaa !29
  %75 = getelementptr inbounds nuw %struct.XanContext, ptr %74, i32 0, i32 1
  %76 = load ptr, ptr %75, align 8, !tbaa !41
  %77 = icmp ne ptr %76, null
  br i1 %77, label %79, label %78

78:                                               ; preds = %70
  store i32 -12, ptr %2, align 4
  store i32 1, ptr %5, align 4
  br label %80

79:                                               ; preds = %70
  store i32 0, ptr %2, align 4
  store i32 1, ptr %5, align 4
  br label %80

80:                                               ; preds = %79, %78, %69, %55, %29, %18
  call void @llvm.lifetime.end.p0(i64 8, ptr %4) #9
  %81 = load i32, ptr %2, align 4
  ret i32 %81
}