; Function Attrs: cold nounwind optsize uwtable
define internal range(i32 -22, 1) i32 @xan_decode_init(ptr noundef %0) #0 {
  %2 = getelementptr inbounds nuw i8, ptr %0, i64 32
  %3 = load ptr, ptr %2, align 8, !tbaa !4
  store ptr %0, ptr %3, align 8, !tbaa !27
  %4 = getelementptr inbounds nuw i8, ptr %0, i64 136
  store i32 0, ptr %4, align 8, !tbaa !32
  %5 = getelementptr inbounds nuw i8, ptr %0, i64 116
  %6 = load i32, ptr %5, align 4, !tbaa !33
  %7 = icmp slt i32 %6, 8
  br i1 %7, label %8, label %9

8:                                                ; preds = %1
  tail call void (ptr, i32, ptr, ...) @av_log(ptr noundef nonnull %0, i32 noundef 16, ptr noundef nonnull @.str.2, i32 noundef %6) #8
  br label %29

9:                                                ; preds = %1
  %10 = getelementptr inbounds nuw i8, ptr %0, i64 112
  %11 = load i32, ptr %10, align 8, !tbaa !34
  %12 = and i32 %11, 1
  %.not = icmp eq i32 %12, 0
  br i1 %.not, label %14, label %13

13:                                               ; preds = %9
  tail call void (ptr, i32, ptr, ...) @av_log(ptr noundef nonnull %0, i32 noundef 16, ptr noundef nonnull @.str.3, i32 noundef %11) #8
  br label %29

14:                                               ; preds = %9
  %15 = mul nsw i32 %11, %6
  %16 = getelementptr inbounds nuw i8, ptr %3, i64 32
  store i32 %15, ptr %16, align 8, !tbaa !35
  %17 = sext i32 %15 to i64
  %18 = tail call noalias ptr @av_malloc(i64 noundef %17) #8
  %19 = getelementptr inbounds nuw i8, ptr %3, i64 16
  store ptr %18, ptr %19, align 8, !tbaa !36
  %.not22 = icmp eq ptr %18, null
  br i1 %.not22, label %29, label %20

20:                                               ; preds = %14
  %21 = load i32, ptr %16, align 8, !tbaa !35
  %22 = add nsw i32 %21, 130
  %23 = sext i32 %22 to i64
  %24 = tail call noalias ptr @av_malloc(i64 noundef %23) #8
  %25 = getelementptr inbounds nuw i8, ptr %3, i64 24
  store ptr %24, ptr %25, align 8, !tbaa !37
  %.not23 = icmp eq ptr %24, null
  br i1 %.not23, label %29, label %26

26:                                               ; preds = %20
  %27 = tail call ptr @av_frame_alloc() #8
  %28 = getelementptr inbounds nuw i8, ptr %3, i64 8
  store ptr %27, ptr %28, align 8, !tbaa !38
  %.not24 = icmp eq ptr %27, null
  %. = select i1 %.not24, i32 -12, i32 0
  br label %29

29:                                               ; preds = %26, %20, %14, %13, %8
  %.0 = phi i32 [ -22, %8 ], [ -22, %13 ], [ -12, %14 ], [ -12, %20 ], [ %., %26 ]
  ret i32 %.0
}